target datalayout = "e-m:e-p270:32:32-p271:32:32-p272:64:64-i64:64-i128:128-f80:128-n8:16:32:64-S128"
target triple = "x86_64-pc-linux-gnu"

%struct.packing_data = type { ptr, ptr, i32, i32, ptr, i32, ptr, ptr, ptr, ptr, %union.pthread_mutex_t, ptr, i32, i32, i64, i64, ptr, ptr, ptr }
%union.pthread_mutex_t = type { %struct.__pthread_mutex_s }
%struct.__pthread_mutex_s = type { i32, i32, i32, i32, i32, i16, i16, %struct.__pthread_internal_list }
%struct.__pthread_internal_list = type { ptr, ptr }
%struct.object_entry = type { %struct.pack_idx_entry, ptr, i64, i32, i32, i32, i32, i32, [3 x i8], i8, i64 }
%struct.pack_idx_entry = type { %struct.object_id, i32, i64 }
%struct.object_id = type { [32 x i8], i32 }

; Function Attrs: inlinehint nounwind uwtable
define internal ptr @oe_delta(ptr noundef %0, ptr noundef %1) #2 {
  %3 = alloca ptr, align 8
  %4 = alloca ptr, align 8
  %5 = alloca ptr, align 8
  store ptr %0, ptr %4, align 8, !tbaa !4
  store ptr %1, ptr %5, align 8, !tbaa !9
  %6 = load ptr, ptr %5, align 8, !tbaa !9
  %7 = getelementptr inbounds nuw %struct.object_entry, ptr %6, i32 0, i32 5
  %8 = load i32, ptr %7, align 8, !tbaa !293
  %9 = icmp ne i32 %8, 0
  br i1 %9, label %11, label %10

10:                                               ; preds = %2
  store ptr null, ptr %3, align 8
  br label %39

11:                                               ; preds = %2
  %12 = load ptr, ptr %5, align 8, !tbaa !9
  %13 = getelementptr inbounds nuw %struct.object_entry, ptr %12, i32 0, i32 10
  %14 = load i64, ptr %13, align 8
  %15 = lshr i64 %14, 55
  %16 = and i64 %15, 1
  %17 = trunc i64 %16 to i32
  %18 = icmp ne i32 %17, 0
  br i1 %18, label %19, label %29

19:                                               ; preds = %11
  %20 = load ptr, ptr %4, align 8, !tbaa !4
  %21 = getelementptr inbounds nuw %struct.packing_data, ptr %20, i32 0, i32 11
  %22 = load ptr, ptr %21, align 8, !tbaa !294
  %23 = load ptr, ptr %5, align 8, !tbaa !9
  %24 = getelementptr inbounds nuw %struct.object_entry, ptr %23, i32 0, i32 5
  %25 = load i32, ptr %24, align 8, !tbaa !293
  %26 = sub i32 %25, 1
  %27 = zext i32 %26 to i64
  %28 = getelementptr inbounds nuw %struct.object_entry, ptr %22, i64 %27
  store ptr %28, ptr %3, align 8
  br label %39

29:                                               ; preds = %11
  %30 = load ptr, ptr %4, align 8, !tbaa !4
  %31 = getelementptr inbounds nuw %struct.packing_data, ptr %30, i32 0, i32 1
  %32 = load ptr, ptr %31, align 8, !tbaa !34
  %33 = load ptr, ptr %5, align 8, !tbaa !9
  %34 = getelementptr inbounds nuw %struct.object_entry, ptr %33, i32 0, i32 5
  %35 = load i32, ptr %34, align 8, !tbaa !293
  %36 = sub i32 %35, 1
  %37 = zext i32 %36 to i64
  %38 = getelementptr inbounds nuw %struct.object_entry, ptr %32, i64 %37
  store ptr %38, ptr %3, align 8
  br label %39

39:                                               ; preds = %29, %19, %10
  %40 = load ptr, ptr %3, align 8
  ret ptr %40
}