; Function Attrs: inlinehint mustprogress nofree norecurse nosync nounwind willreturn memory(read, inaccessiblemem: none) uwtable
define internal fastcc ptr @oe_delta(ptr noundef readonly captures(none) %0) unnamed_addr #18 {
  %2 = getelementptr inbounds nuw i8, ptr %0, i64 72
  %3 = load i32, ptr %2, align 8, !tbaa !176
  %.not = icmp eq i32 %3, 0
  br i1 %.not, label %16, label %4

4:                                                ; preds = %1
  %5 = getelementptr inbounds nuw i8, ptr %0, i64 88
  %6 = load i64, ptr %5, align 8
  %7 = and i64 %6, 36028797018963968
  %.not8 = icmp eq i64 %7, 0
  %8 = add i32 %3, -1
  %9 = zext i32 %8 to i64
  br i1 %.not8, label %13, label %10

10:                                               ; preds = %4
  %11 = load ptr, ptr getelementptr inbounds nuw (i8, ptr @to_pack, i64 112), align 8, !tbaa !185
  %12 = getelementptr inbounds nuw %struct.object_entry, ptr %11, i64 %9
  br label %16

13:                                               ; preds = %4
  %14 = load ptr, ptr getelementptr inbounds nuw (i8, ptr @to_pack, i64 8), align 8, !tbaa !19
  %15 = getelementptr inbounds nuw %struct.object_entry, ptr %14, i64 %9
  br label %16

16:                                               ; preds = %1, %13, %10
  %.0 = phi ptr [ %12, %10 ], [ %15, %13 ], [ null, %1 ]
  ret ptr %.0
}